target datalayout = "e-m:e-p270:32:32-p271:32:32-p272:64:64-i64:64-i128:128-f80:128-n8:16:32:64-S128"
target triple = "x86_64-pc-linux-gnu"

%struct.Vec_Int_t_ = type { i32, i32, ptr }
%struct.Gia_Man_t_ = type { ptr, ptr, i32, i32, i32, i32, ptr, ptr, i32, i32, i32, ptr, ptr, %struct.Vec_Int_t_, %struct.Vec_Int_t_, i32, i32, i32, %struct.Vec_Int_t_, ptr, ptr, ptr, i32, i32, i32, i32, ptr, ptr, ptr, ptr, ptr, i32, i32, ptr, i32, ptr, ptr, ptr, ptr, ptr, ptr, ptr, ptr, ptr, ptr, ptr, ptr, ptr, ptr, ptr, ptr, ptr, ptr, %struct.Vec_Int_t_, %struct.Vec_Int_t_, ptr, ptr, ptr, ptr, ptr, ptr, ptr, ptr, ptr, ptr, ptr, ptr, ptr, ptr, ptr, ptr, ptr, ptr, ptr, ptr, ptr, i32, float, float, ptr, ptr, i32, ptr, ptr, ptr, ptr, ptr, ptr, ptr, ptr, ptr, ptr, ptr, ptr, ptr, ptr, ptr, i64, i64, ptr, ptr, i32, i32, i32, i32, i32, i32, i32, i32, i32, i32, i32, i32, ptr, ptr, ptr, ptr, ptr, ptr, ptr, ptr, i32, i32, i32, ptr, i32, i32, ptr, ptr, ptr, ptr, ptr, ptr, i32, i32, ptr, %struct.Vec_Int_t_, %struct.Vec_Int_t_, %struct.Vec_Int_t_, ptr, ptr, ptr, i32, i32, i32, i32, ptr, ptr, ptr, ptr, ptr }
%struct.Vec_Bit_t_ = type { i32, i32, ptr }

; Function Attrs: inlinehint nounwind uwtable
define internal ptr @Vec_BitAlloc(i32 noundef %0) #3 {
  %2 = alloca i32, align 4
  %3 = alloca ptr, align 8
  store i32 %0, ptr %2, align 4, !tbaa !3
  call void @llvm.lifetime.start.p0(i64 8, ptr %3) #12
  %4 = load i32, ptr %2, align 4, !tbaa !3
  %5 = ashr i32 %4, 5
  %6 = load i32, ptr %2, align 4, !tbaa !3
  %7 = and i32 %6, 31
  %8 = icmp sgt i32 %7, 0
  %9 = zext i1 %8 to i32
  %10 = add nsw i32 %5, %9
  store i32 %10, ptr %2, align 4, !tbaa !3
  %11 = call noalias ptr @malloc(i64 noundef 16) #13
  store ptr %11, ptr %3, align 8, !tbaa !96
  %12 = load ptr, ptr %3, align 8, !tbaa !96
  %13 = getelementptr inbounds nuw %struct.Vec_Bit_t_, ptr %12, i32 0, i32 1
  store i32 0, ptr %13, align 4, !tbaa !101
  %14 = load i32, ptr %2, align 4, !tbaa !3
  %15 = mul nsw i32 %14, 32
  %16 = load ptr, ptr %3, align 8, !tbaa !96
  %17 = getelementptr inbounds nuw %struct.Vec_Bit_t_, ptr %16, i32 0, i32 0
  store i32 %15, ptr %17, align 8, !tbaa !110
  %18 = load i32, ptr %2, align 4, !tbaa !3
  %19 = icmp ne i32 %18, 0
  br i1 %19, label %20, label %25

20:                                               ; preds = %1
  %21 = load i32, ptr %2, align 4, !tbaa !3
  %22 = sext i32 %21 to i64
  %23 = mul i64 4, %22
  %24 = call noalias ptr @malloc(i64 noundef %23) #13
  br label %26

25:                                               ; preds = %1
  br label %26

26:                                               ; preds = %25, %20
  %27 = phi ptr [ %24, %20 ], [ null, %25 ]
  %28 = load ptr, ptr %3, align 8, !tbaa !96
  %29 = getelementptr inbounds nuw %struct.Vec_Bit_t_, ptr %28, i32 0, i32 2
  store ptr %27, ptr %29, align 8, !tbaa !98
  %30 = load ptr, ptr %3, align 8, !tbaa !96
  call void @llvm.lifetime.end.p0(i64 8, ptr %3) #12
  ret ptr %30
}

; Function Attrs: inlinehint nounwind uwtable
define internal void @Vec_BitFree(ptr noundef %0) #3 {
  %2 = alloca ptr, align 8
  store ptr %0, ptr %2, align 8, !tbaa !96
  %3 = load ptr, ptr %2, align 8, !tbaa !96
  %4 = getelementptr inbounds nuw %struct.Vec_Bit_t_, ptr %3, i32 0, i32 2
  %5 = load ptr, ptr %4, align 8, !tbaa !98
  %6 = icmp ne ptr %5, null
  br i1 %6, label %7, label %13

7:                                                ; preds = %1
  %8 = load ptr, ptr %2, align 8, !tbaa !96
  %9 = getelementptr inbounds nuw %struct.Vec_Bit_t_, ptr %8, i32 0, i32 2
  %10 = load ptr, ptr %9, align 8, !tbaa !98
  call void @free(ptr noundef %10) #12
  %11 = load ptr, ptr %2, align 8, !tbaa !96
  %12 = getelementptr inbounds nuw %struct.Vec_Bit_t_, ptr %11, i32 0, i32 2
  store ptr null, ptr %12, align 8, !tbaa !98
  br label %14

13:                                               ; preds = %1
  br label %14

14:                                               ; preds = %13, %7
  %15 = load ptr, ptr %2, align 8, !tbaa !96
  %16 = icmp ne ptr %15, null
  br i1 %16, label %17, label %19

17:                                               ; preds = %14
  %18 = load ptr, ptr %2, align 8, !tbaa !96
  call void @free(ptr noundef %18) #12
  store ptr null, ptr %2, align 8, !tbaa !96
  br label %20

19:                                               ; preds = %14
  br label %20

20:                                               ; preds = %19, %17
  ret void
}

; Function Attrs: inlinehint nounwind uwtable
define internal void @Vec_BitWriteEntry(ptr noundef %0, i32 noundef %1, i32 noundef %2) #3 {
  %4 = alloca ptr, align 8
  %5 = alloca i32, align 4
  %6 = alloca i32, align 4
  store ptr %0, ptr %4, align 8, !tbaa !96
  store i32 %1, ptr %5, align 4, !tbaa !3
  store i32 %2, ptr %6, align 4, !tbaa !3
  %7 = load i32, ptr %6, align 4, !tbaa !3
  %8 = icmp eq i32 %7, 1
  br i1 %8, label %9, label %22

9:                                                ; preds = %3
  %10 = load i32, ptr %5, align 4, !tbaa !3
  %11 = and i32 %10, 31
  %12 = shl i32 1, %11
  %13 = load ptr, ptr %4, align 8, !tbaa !96
  %14 = getelementptr inbounds nuw %struct.Vec_Bit_t_, ptr %13, i32 0, i32 2
  %15 = load ptr, ptr %14, align 8, !tbaa !98
  %16 = load i32, ptr %5, align 4, !tbaa !3
  %17 = ashr i32 %16, 5
  %18 = sext i32 %17 to i64
  %19 = getelementptr inbounds i32, ptr %15, i64 %18
  %20 = load i32, ptr %19, align 4, !tbaa !3
  %21 = or i32 %20, %12
  store i32 %21, ptr %19, align 4, !tbaa !3
  br label %41

22:                                               ; preds = %3
  %23 = load i32, ptr %6, align 4, !tbaa !3
  %24 = icmp eq i32 %23, 0
  br i1 %24, label %25, label %39

25:                                               ; preds = %22
  %26 = load i32, ptr %5, align 4, !tbaa !3
  %27 = and i32 %26, 31
  %28 = shl i32 1, %27
  %29 = xor i32 %28, -1
  %30 = load ptr, ptr %4, align 8, !tbaa !96
  %31 = getelementptr inbounds nuw %struct.Vec_Bit_t_, ptr %30, i32 0, i32 2
  %32 = load ptr, ptr %31, align 8, !tbaa !98
  %33 = load i32, ptr %5, align 4, !tbaa !3
  %34 = ashr i32 %33, 5
  %35 = sext i32 %34 to i64
  %36 = getelementptr inbounds i32, ptr %32, i64 %35
  %37 = load i32, ptr %36, align 4, !tbaa !3
  %38 = and i32 %37, %29
  store i32 %38, ptr %36, align 4, !tbaa !3
  br label %40

39:                                               ; preds = %22
  br label %40

40:                                               ; preds = %39, %25
  br label %41

41:                                               ; preds = %40, %9
  ret void
}

; Function Attrs: inlinehint nounwind uwtable
define internal i32 @Vec_IntEntry(ptr noundef %0, i32 noundef %1) #3 {
  %3 = alloca ptr, align 8
  %4 = alloca i32, align 4
  store ptr %0, ptr %3, align 8, !tbaa !27
  store i32 %1, ptr %4, align 4, !tbaa !3
  %5 = load ptr, ptr %3, align 8, !tbaa !27
  %6 = getelementptr inbounds nuw %struct.Vec_Int_t_, ptr %5, i32 0, i32 2
  %7 = load ptr, ptr %6, align 8, !tbaa !35
  %8 = load i32, ptr %4, align 4, !tbaa !3
  %9 = sext i32 %8 to i64
  %10 = getelementptr inbounds i32, ptr %7, i64 %9
  %11 = load i32, ptr %10, align 4, !tbaa !3
  ret i32 %11
}

; Function Attrs: inlinehint nounwind uwtable
define internal i32 @Vec_IntSize(ptr noundef %0) #3 {
  %2 = alloca ptr, align 8
  store ptr %0, ptr %2, align 8, !tbaa !27
  %3 = load ptr, ptr %2, align 8, !tbaa !27
  %4 = getelementptr inbounds nuw %struct.Vec_Int_t_, ptr %3, i32 0, i32 1
  %5 = load i32, ptr %4, align 4, !tbaa !38
  ret i32 %5
}

; Function Attrs: inlinehint nounwind uwtable
define internal ptr @Vec_BitStart(i32 noundef %0) #3 {
  %2 = alloca i32, align 4
  %3 = alloca ptr, align 8
  store i32 %0, ptr %2, align 4, !tbaa !3
  call void @llvm.lifetime.start.p0(i64 8, ptr %3) #12
  %4 = load i32, ptr %2, align 4, !tbaa !3
  %5 = ashr i32 %4, 5
  %6 = load i32, ptr %2, align 4, !tbaa !3
  %7 = and i32 %6, 31
  %8 = icmp sgt i32 %7, 0
  %9 = zext i1 %8 to i32
  %10 = add nsw i32 %5, %9
  store i32 %10, ptr %2, align 4, !tbaa !3
  %11 = load i32, ptr %2, align 4, !tbaa !3
  %12 = mul nsw i32 %11, 32
  %13 = call ptr @Vec_BitAlloc(i32 noundef %12)
  store ptr %13, ptr %3, align 8, !tbaa !96
  %14 = load i32, ptr %2, align 4, !tbaa !3
  %15 = mul nsw i32 %14, 32
  %16 = load ptr, ptr %3, align 8, !tbaa !96
  %17 = getelementptr inbounds nuw %struct.Vec_Bit_t_, ptr %16, i32 0, i32 1
  store i32 %15, ptr %17, align 4, !tbaa !101
  %18 = load ptr, ptr %3, align 8, !tbaa !96
  %19 = getelementptr inbounds nuw %struct.Vec_Bit_t_, ptr %18, i32 0, i32 2
  %20 = load ptr, ptr %19, align 8, !tbaa !98
  %21 = load i32, ptr %2, align 4, !tbaa !3
  %22 = sext i32 %21 to i64
  %23 = mul i64 4, %22
  call void @llvm.memset.p0.i64(ptr align 4 %20, i8 0, i64 %23, i1 false)
  %24 = load ptr, ptr %3, align 8, !tbaa !96
  call void @llvm.lifetime.end.p0(i64 8, ptr %3) #12
  ret ptr %24
}

; Function Attrs: inlinehint nounwind uwtable
define internal i32 @Gia_ManObjNum(ptr noundef %0) #3 {
  %2 = alloca ptr, align 8
  store ptr %0, ptr %2, align 8, !tbaa !25
  %3 = load ptr, ptr %2, align 8, !tbaa !25
  %4 = getelementptr inbounds nuw %struct.Gia_Man_t_, ptr %3, i32 0, i32 4
  %5 = load i32, ptr %4, align 8, !tbaa !89
  ret i32 %5
}

; Function Attrs: nounwind uwtable
define ptr @Ree_CollectInsiders(ptr noundef %0, ptr noundef %1) #0 {
  %3 = alloca ptr, align 8
  %4 = alloca ptr, align 8
  %5 = alloca ptr, align 8
  %6 = alloca ptr, align 8
  %7 = alloca i32, align 4
  %8 = alloca i32, align 4
  %9 = alloca i32, align 4
  %10 = alloca i32, align 4
  store ptr %0, ptr %3, align 8, !tbaa !25
  store ptr %1, ptr %4, align 8, !tbaa !27
  call void @llvm.lifetime.start.p0(i64 8, ptr %5) #12
  %11 = load ptr, ptr %3, align 8, !tbaa !25
  %12 = call i32 @Gia_ManObjNum(ptr noundef %11)
  %13 = call ptr @Vec_BitStart(i32 noundef %12)
  store ptr %13, ptr %5, align 8, !tbaa !96
  call void @llvm.lifetime.start.p0(i64 8, ptr %6) #12
  %14 = load ptr, ptr %3, align 8, !tbaa !25
  %15 = call i32 @Gia_ManObjNum(ptr noundef %14)
  %16 = call ptr @Vec_BitStart(i32 noundef %15)
  store ptr %16, ptr %6, align 8, !tbaa !96
  call void @llvm.lifetime.start.p0(i64 4, ptr %7) #12
  call void @llvm.lifetime.start.p0(i64 4, ptr %8) #12
  call void @llvm.lifetime.start.p0(i64 4, ptr %9) #12
  call void @llvm.lifetime.start.p0(i64 4, ptr %10) #12
  store i32 0, ptr %7, align 4, !tbaa !3
  br label %17

17:                                               ; preds = %71, %2
  %18 = load i32, ptr %7, align 4, !tbaa !3
  %19 = mul nsw i32 6, %18
  %20 = load ptr, ptr %4, align 8, !tbaa !27
  %21 = call i32 @Vec_IntSize(ptr noundef %20)
  %22 = icmp slt i32 %19, %21
  br i1 %22, label %23, label %74

23:                                               ; preds = %17
  %24 = load ptr, ptr %4, align 8, !tbaa !27
  %25 = load i32, ptr %7, align 4, !tbaa !3
  %26 = mul nsw i32 6, %25
  %27 = add nsw i32 %26, 2
  %28 = call i32 @Vec_IntEntry(ptr noundef %24, i32 noundef %27)
  %29 = icmp eq i32 %28, 0
  br i1 %29, label %30, label %31

30:                                               ; preds = %23
  br label %71

31:                                               ; preds = %23
  %32 = load ptr, ptr %4, align 8, !tbaa !27
  %33 = load i32, ptr %7, align 4, !tbaa !3
  %34 = mul nsw i32 6, %33
  %35 = add nsw i32 %34, 0
  %36 = call i32 @Vec_IntEntry(ptr noundef %32, i32 noundef %35)
  store i32 %36, ptr %8, align 4, !tbaa !3
  %37 = load ptr, ptr %4, align 8, !tbaa !27
  %38 = load i32, ptr %7, align 4, !tbaa !3
  %39 = mul nsw i32 6, %38
  %40 = add nsw i32 %39, 1
  %41 = call i32 @Vec_IntEntry(ptr noundef %37, i32 noundef %40)
  store i32 %41, ptr %9, align 4, !tbaa !3
  %42 = load ptr, ptr %4, align 8, !tbaa !27
  %43 = load i32, ptr %7, align 4, !tbaa !3
  %44 = mul nsw i32 6, %43
  %45 = add nsw i32 %44, 2
  %46 = call i32 @Vec_IntEntry(ptr noundef %42, i32 noundef %45)
  store i32 %46, ptr %10, align 4, !tbaa !3
  %47 = load ptr, ptr %5, align 8, !tbaa !96
  %48 = load i32, ptr %8, align 4, !tbaa !3
  call void @Vec_BitWriteEntry(ptr noundef %47, i32 noundef %48, i32 noundef 1)
  %49 = load ptr, ptr %5, align 8, !tbaa !96
  %50 = load i32, ptr %9, align 4, !tbaa !3
  call void @Vec_BitWriteEntry(ptr noundef %49, i32 noundef %50, i32 noundef 1)
  %51 = load ptr, ptr %5, align 8, !tbaa !96
  %52 = load i32, ptr %10, align 4, !tbaa !3
  call void @Vec_BitWriteEntry(ptr noundef %51, i32 noundef %52, i32 noundef 1)
  %53 = load ptr, ptr %4, align 8, !tbaa !27
  %54 = load i32, ptr %7, align 4, !tbaa !3
  %55 = mul nsw i32 6, %54
  %56 = add nsw i32 %55, 3
  %57 = call i32 @Vec_IntEntry(ptr noundef %53, i32 noundef %56)
  store i32 %57, ptr %8, align 4, !tbaa !3
  %58 = load ptr, ptr %4, align 8, !tbaa !27
  %59 = load i32, ptr %7, align 4, !tbaa !3
  %60 = mul nsw i32 6, %59
  %61 = add nsw i32 %60, 4
  %62 = call i32 @Vec_IntEntry(ptr noundef %58, i32 noundef %61)
  store i32 %62, ptr %9, align 4, !tbaa !3
  %63 = load ptr, ptr %3, align 8, !tbaa !25
  %64 = load i32, ptr %8, align 4, !tbaa !3
  %65 = load ptr, ptr %5, align 8, !tbaa !96
  %66 = load ptr, ptr %6, align 8, !tbaa !96
  call void @Ree_CollectInsiders_rec(ptr noundef %63, i32 noundef %64, ptr noundef %65, ptr noundef %66)
  %67 = load ptr, ptr %3, align 8, !tbaa !25
  %68 = load i32, ptr %9, align 4, !tbaa !3
  %69 = load ptr, ptr %5, align 8, !tbaa !96
  %70 = load ptr, ptr %6, align 8, !tbaa !96
  call void @Ree_CollectInsiders_rec(ptr noundef %67, i32 noundef %68, ptr noundef %69, ptr noundef %70)
  br label %71

71:                                               ; preds = %31, %30
  %72 = load i32, ptr %7, align 4, !tbaa !3
  %73 = add nsw i32 %72, 1
  store i32 %73, ptr %7, align 4, !tbaa !3
  br label %17, !llvm.loop !100

74:                                               ; preds = %17
  %75 = load ptr, ptr %5, align 8, !tbaa !96
  call void @Vec_BitFree(ptr noundef %75)
  %76 = load ptr, ptr %6, align 8, !tbaa !96
  call void @llvm.lifetime.end.p0(i64 4, ptr %10) #12
  call void @llvm.lifetime.end.p0(i64 4, ptr %9) #12
  call void @llvm.lifetime.end.p0(i64 4, ptr %8) #12
  call void @llvm.lifetime.end.p0(i64 4, ptr %7) #12
  call void @llvm.lifetime.end.p0(i64 8, ptr %6) #12
  call void @llvm.lifetime.end.p0(i64 8, ptr %5) #12
  ret ptr %76
}