; Function Attrs: nounwind uwtable
define noundef ptr @Ree_CollectInsiders(ptr noundef %0, ptr noundef readonly captures(none) %1) local_unnamed_addr #4 {
  %3 = getelementptr i8, ptr %0, i64 24
  %.val40 = load i32, ptr %3, align 8, !tbaa !80
  %4 = ashr i32 %.val40, 5
  %5 = and i32 %.val40, 31
  %6 = icmp ne i32 %5, 0
  %7 = zext i1 %6 to i32
  %8 = add nsw i32 %4, %7
  %9 = tail call noalias dereferenceable_or_null(16) ptr @malloc(i64 noundef 16) #23
  %10 = shl nsw i32 %8, 5
  store i32 %10, ptr %9, align 8, !tbaa !93
  %.not.i.i = icmp eq i32 %8, 0
  br i1 %.not.i.i, label %Vec_BitStart.exit, label %11

11:                                               ; preds = %2
  %12 = sext i32 %8 to i64
  %13 = shl nsw i64 %12, 2
  %14 = tail call noalias ptr @malloc(i64 noundef %13) #23
  br label %Vec_BitStart.exit

Vec_BitStart.exit:                                ; preds = %2, %11
  %.pre-phi8.i = phi i64 [ %13, %11 ], [ 0, %2 ]
  %15 = phi ptr [ %14, %11 ], [ null, %2 ]
  %16 = getelementptr inbounds nuw i8, ptr %9, i64 4
  %17 = getelementptr inbounds nuw i8, ptr %9, i64 8
  store ptr %15, ptr %17, align 8, !tbaa !89
  store i32 %10, ptr %16, align 4, !tbaa !92
  tail call void @llvm.memset.p0.i64(ptr align 4 %15, i8 0, i64 %.pre-phi8.i, i1 false)
  %18 = tail call noalias dereferenceable_or_null(16) ptr @malloc(i64 noundef 16) #23
  store i32 %10, ptr %18, align 8, !tbaa !93
  br i1 %.not.i.i, label %Vec_BitStart.exit46, label %19

19:                                               ; preds = %Vec_BitStart.exit
  %20 = sext i32 %8 to i64
  %21 = shl nsw i64 %20, 2
  %22 = tail call noalias ptr @malloc(i64 noundef %21) #23
  br label %Vec_BitStart.exit46

Vec_BitStart.exit46:                              ; preds = %Vec_BitStart.exit, %19
  %.pre-phi8.i45 = phi i64 [ %21, %19 ], [ 0, %Vec_BitStart.exit ]
  %23 = phi ptr [ %22, %19 ], [ null, %Vec_BitStart.exit ]
  %24 = getelementptr inbounds nuw i8, ptr %18, i64 4
  %25 = getelementptr inbounds nuw i8, ptr %18, i64 8
  store ptr %23, ptr %25, align 8, !tbaa !89
  store i32 %10, ptr %24, align 4, !tbaa !92
  tail call void @llvm.memset.p0.i64(ptr align 4 %23, i8 0, i64 %.pre-phi8.i45, i1 false)
  %26 = getelementptr i8, ptr %1, i64 4
  %.val47 = load i32, ptr %26, align 4, !tbaa !26
  %27 = icmp sgt i32 %.val47, 0
  br i1 %27, label %.lr.ph, label %._crit_edge

.lr.ph:                                           ; preds = %Vec_BitStart.exit46
  %28 = getelementptr i8, ptr %1, i64 8
  br label %29

29:                                               ; preds = %.lr.ph, %67
  %.val50 = phi i32 [ %.val47, %.lr.ph ], [ %.val, %67 ]
  %indvars.iv = phi i64 [ 0, %.lr.ph ], [ %indvars.iv.next, %67 ]
  %30 = phi i32 [ 0, %.lr.ph ], [ %69, %67 ]
  %.val38 = load ptr, ptr %28, align 8, !tbaa !24
  %31 = zext nneg i32 %30 to i64
  %32 = getelementptr inbounds nuw i32, ptr %.val38, i64 %31
  %33 = getelementptr inbounds nuw i8, ptr %32, i64 8
  %34 = load i32, ptr %33, align 4, !tbaa !17
  %35 = icmp eq i32 %34, 0
  br i1 %35, label %67, label %36

36:                                               ; preds = %29
  %37 = load i32, ptr %32, align 4, !tbaa !17
  %38 = or disjoint i32 %30, 1
  %39 = zext nneg i32 %38 to i64
  %40 = getelementptr inbounds nuw i32, ptr %.val38, i64 %39
  %41 = load i32, ptr %40, align 4, !tbaa !17
  %.val41 = load ptr, ptr %17, align 8, !tbaa !89
  %42 = and i32 %37, 31
  %43 = shl nuw i32 1, %42
  %44 = ashr i32 %37, 5
  %45 = sext i32 %44 to i64
  %46 = getelementptr inbounds i32, ptr %.val41, i64 %45
  %47 = load i32, ptr %46, align 4, !tbaa !17
  %48 = or i32 %47, %43
  store i32 %48, ptr %46, align 4, !tbaa !17
  %49 = and i32 %41, 31
  %50 = shl nuw i32 1, %49
  %51 = ashr i32 %41, 5
  %52 = sext i32 %51 to i64
  %53 = getelementptr inbounds i32, ptr %.val41, i64 %52
  %54 = load i32, ptr %53, align 4, !tbaa !17
  %55 = or i32 %54, %50
  store i32 %55, ptr %53, align 4, !tbaa !17
  %56 = and i32 %34, 31
  %57 = shl nuw i32 1, %56
  %58 = ashr i32 %34, 5
  %59 = sext i32 %58 to i64
  %60 = getelementptr inbounds i32, ptr %.val41, i64 %59
  %61 = load i32, ptr %60, align 4, !tbaa !17
  %62 = or i32 %61, %57
  store i32 %62, ptr %60, align 4, !tbaa !17
  %63 = getelementptr inbounds nuw i8, ptr %32, i64 12
  %64 = load i32, ptr %63, align 4, !tbaa !17
  %65 = getelementptr inbounds nuw i8, ptr %32, i64 16
  %66 = load i32, ptr %65, align 4, !tbaa !17
  tail call void @Ree_CollectInsiders_rec(ptr noundef %0, i32 noundef %64, ptr noundef nonnull %9, ptr noundef nonnull %18)
  tail call void @Ree_CollectInsiders_rec(ptr noundef %0, i32 noundef %66, ptr noundef nonnull %9, ptr noundef nonnull %18)
  %.val.pre = load i32, ptr %26, align 4, !tbaa !26
  br label %67

67:                                               ; preds = %29, %36
  %.val = phi i32 [ %.val50, %29 ], [ %.val.pre, %36 ]
  %indvars.iv.next = add nuw nsw i64 %indvars.iv, 1
  %68 = trunc i64 %indvars.iv.next to i32
  %69 = mul i32 %68, 6
  %70 = icmp slt i32 %69, %.val
  br i1 %70, label %29, label %._crit_edge.loopexit, !llvm.loop !94

._crit_edge.loopexit:                             ; preds = %67
  %.pre = load ptr, ptr %17, align 8, !tbaa !89
  br label %._crit_edge

._crit_edge:                                      ; preds = %._crit_edge.loopexit, %Vec_BitStart.exit46
  %71 = phi ptr [ %.pre, %._crit_edge.loopexit ], [ %15, %Vec_BitStart.exit46 ]
  %.not.i = icmp eq ptr %71, null
  br i1 %.not.i, label %Vec_BitFree.exit, label %72

72:                                               ; preds = %._crit_edge
  tail call void @free(ptr noundef nonnull %71) #21
  br label %Vec_BitFree.exit

Vec_BitFree.exit:                                 ; preds = %._crit_edge, %72
  tail call void @free(ptr noundef nonnull %9) #21
  ret ptr %18
}